; Function Attrs: mustprogress uwtable
define void @_ZN7rocksdb8LogFlushERKSt10shared_ptrINS_6LoggerEE(ptr noundef nonnull readonly align 8 captures(none) dereferenceable(16) %0) local_unnamed_addr #4 {
  %2 = load ptr, ptr %0, align 8, !tbaa !229
  %.not.i = icmp eq ptr %2, null
  br i1 %.not.i, label %_ZN7rocksdb8LogFlushEPNS_6LoggerE.exit, label %3

3:                                                ; preds = %1
  %4 = load ptr, ptr %2, align 8, !tbaa !18
  %5 = getelementptr inbounds nuw i8, ptr %4, i64 56
  %6 = load ptr, ptr %5, align 8
  tail call void %6(ptr noundef nonnull align 8 dereferenceable(10) %2)
  br label %_ZN7rocksdb8LogFlushEPNS_6LoggerE.exit

_ZN7rocksdb8LogFlushEPNS_6LoggerE.exit:           ; preds = %1, %3
  ret void
}